target datalayout = "e-m:e-p270:32:32-p271:32:32-p272:64:64-i64:64-i128:128-f80:128-n8:16:32:64-S128"
target triple = "x86_64-pc-linux-gnu"

%struct.hwloc_topology = type { i32, i32, i32, ptr, ptr, i64, [20 x i32], [20 x i32], i64, i64, i32, ptr, i64, ptr, i64, [6 x %struct.hwloc_special_level_s], ptr, ptr, %struct.hwloc_binding_hooks, %struct.hwloc_topology_support, %struct.hwloc_infos_s, ptr, ptr, i32, ptr, ptr, i32, i32, ptr, i32, i32, ptr, i32, i32, i32, [5 x float], i32, ptr, ptr, i32, i32, ptr, i32, %struct.hwloc_numanode_attr_s, i32, i32, ptr, i64, i32, ptr, ptr, ptr }
%struct.hwloc_special_level_s = type { i32, ptr, ptr, ptr }
%struct.hwloc_binding_hooks = type { ptr, ptr, ptr, ptr, ptr, ptr, ptr, ptr, ptr, ptr, ptr, ptr, ptr, ptr, ptr, ptr, ptr, ptr, ptr, ptr, ptr, ptr, ptr, ptr }
%struct.hwloc_topology_support = type { ptr, ptr, ptr, ptr }
%struct.hwloc_infos_s = type { ptr, i32, i32 }
%struct.hwloc_numanode_attr_s = type { i64, i32, ptr }

@.str.7 = private unnamed_addr constant [4 x i8] c"xml\00", align 1

; Function Attrs: nounwind uwtable
define i32 @hwloc_topology_set_xmlbuffer(ptr noundef %0, ptr noundef %1, i32 noundef %2) #0 {
  %4 = alloca i32, align 4
  %5 = alloca ptr, align 8
  %6 = alloca ptr, align 8
  %7 = alloca i32, align 4
  store ptr %0, ptr %5, align 8, !tbaa !3
  store ptr %1, ptr %6, align 8, !tbaa !34
  store i32 %2, ptr %7, align 4, !tbaa !33
  %8 = load ptr, ptr %5, align 8, !tbaa !3
  %9 = getelementptr inbounds nuw %struct.hwloc_topology, ptr %8, i32 0, i32 8
  %10 = load i64, ptr %9, align 8, !tbaa !86
  %11 = and i64 %10, 8
  %12 = icmp ne i64 %11, 0
  br i1 %12, label %15, label %13

13:                                               ; preds = %3
  %14 = call ptr @__errno_location() #16
  store i32 16, ptr %14, align 4, !tbaa !33
  store i32 -1, ptr %4, align 4
  br label %22

15:                                               ; preds = %3
  %16 = load ptr, ptr %5, align 8, !tbaa !3
  %17 = load ptr, ptr %6, align 8, !tbaa !34
  %18 = load i32, ptr %7, align 4, !tbaa !33
  %19 = sext i32 %18 to i64
  %20 = inttoptr i64 %19 to ptr
  %21 = call i32 @hwloc_disc_component_force_enable(ptr noundef %16, i32 noundef 0, ptr noundef @.str.7, ptr noundef null, ptr noundef %17, ptr noundef %20)
  store i32 %21, ptr %4, align 4
  br label %22

22:                                               ; preds = %15, %13
  %23 = load i32, ptr %4, align 4
  ret i32 %23
}