; Function Attrs: nounwind uwtable
define i32 @hwloc_topology_set_xmlbuffer(ptr noundef %0, ptr noundef %1, i32 noundef %2) local_unnamed_addr #5 {
  %4 = getelementptr inbounds nuw i8, ptr %0, i64 200
  %5 = load i64, ptr %4, align 8, !tbaa !90
  %6 = and i64 %5, 8
  %.not = icmp eq i64 %6, 0
  br i1 %.not, label %7, label %9

7:                                                ; preds = %3
  %8 = tail call ptr @__errno_location() #37
  store i32 16, ptr %8, align 4, !tbaa !31
  br label %13

9:                                                ; preds = %3
  %10 = sext i32 %2 to i64
  %11 = inttoptr i64 %10 to ptr
  %12 = tail call i32 @hwloc_disc_component_force_enable(ptr noundef nonnull %0, i32 noundef 0, ptr noundef nonnull @.str.7, ptr noundef null, ptr noundef %1, ptr noundef %11) #34
  br label %13

13:                                               ; preds = %9, %7
  %.0 = phi i32 [ %12, %9 ], [ -1, %7 ]
  ret i32 %.0
}